target datalayout = "e-m:e-p270:32:32-p271:32:32-p272:64:64-i64:64-i128:128-f80:128-n8:16:32:64-S128"
target triple = "x86_64-pc-linux-gnu"

%struct.psa_hash_operation_s = type { i32, %union.psa_driver_hash_context_t }
%union.psa_driver_hash_context_t = type { %struct.mbedtls_psa_hash_operation_t }
%struct.mbedtls_psa_hash_operation_t = type { i32, %union.anon.1 }
%union.anon.1 = type { %struct.mbedtls_sha512_context }
%struct.mbedtls_sha512_context = type { [2 x i64], [8 x i64], [128 x i8], i32 }
%struct.psa_mac_operation_s = type { i32, i8, i8, %union.psa_driver_mac_context_t }
%union.psa_driver_mac_context_t = type { %struct.mbedtls_psa_mac_operation_t }
%struct.mbedtls_psa_mac_operation_t = type { i32, %union.anon.2 }
%union.anon.2 = type { %struct.mbedtls_psa_hmac_operation_t }
%struct.mbedtls_psa_hmac_operation_t = type { i32, %struct.psa_hash_operation_s, [144 x i8] }
%struct.psa_key_derivation_s = type { i32, i8, i64, %union.psa_driver_key_derivation_context_t }
%union.psa_driver_key_derivation_context_t = type { %struct.psa_hkdf_key_derivation_t }
%struct.psa_hkdf_key_derivation_t = type { ptr, i64, i8, i8, i8, [64 x i8], [64 x i8], %struct.psa_mac_operation_s }
%struct.psa_tls12_prf_key_derivation_s = type { i8, i8, i32, ptr, i64, ptr, i64, ptr, i64, ptr, i64, [64 x i8], [64 x i8] }
%struct.psa_tls12_ecjpake_to_pms_t = type { [32 x i8] }

; Function Attrs: inlinehint nounwind uwtable
define internal i32 @psa_driver_wrapper_mac_abort(ptr noundef %0) #6 {
  %2 = alloca i32, align 4
  %3 = alloca ptr, align 8
  store ptr %0, ptr %3, align 8, !tbaa !75
  %4 = load ptr, ptr %3, align 8, !tbaa !75
  %5 = getelementptr inbounds nuw %struct.psa_mac_operation_s, ptr %4, i32 0, i32 0
  %6 = load i32, ptr %5, align 8, !tbaa !77
  switch i32 %6, label %11 [
    i32 1, label %7
  ]

7:                                                ; preds = %1
  %8 = load ptr, ptr %3, align 8, !tbaa !75
  %9 = getelementptr inbounds nuw %struct.psa_mac_operation_s, ptr %8, i32 0, i32 3
  %10 = call i32 @mbedtls_psa_mac_abort(ptr noundef %9)
  store i32 %10, ptr %2, align 4
  br label %12

11:                                               ; preds = %1
  store i32 -135, ptr %2, align 4
  br label %12

12:                                               ; preds = %11, %7
  %13 = load i32, ptr %2, align 4
  ret i32 %13
}

; Function Attrs: nounwind uwtable
define hidden i32 @psa_mac_abort(ptr noundef %0) #0 {
  %2 = alloca i32, align 4
  %3 = alloca ptr, align 8
  %4 = alloca i32, align 4
  store ptr %0, ptr %3, align 8, !tbaa !75
  %5 = load ptr, ptr %3, align 8, !tbaa !75
  %6 = getelementptr inbounds nuw %struct.psa_mac_operation_s, ptr %5, i32 0, i32 0
  %7 = load i32, ptr %6, align 8, !tbaa !77
  %8 = icmp eq i32 %7, 0
  br i1 %8, label %9, label %10

9:                                                ; preds = %1
  store i32 0, ptr %2, align 4
  br label %23

10:                                               ; preds = %1
  call void @llvm.lifetime.start.p0(i64 4, ptr %4) #8
  %11 = load ptr, ptr %3, align 8, !tbaa !75
  %12 = call i32 @psa_driver_wrapper_mac_abort(ptr noundef %11)
  store i32 %12, ptr %4, align 4, !tbaa !3
  %13 = load ptr, ptr %3, align 8, !tbaa !75
  %14 = getelementptr inbounds nuw %struct.psa_mac_operation_s, ptr %13, i32 0, i32 1
  store i8 0, ptr %14, align 4, !tbaa !79
  %15 = load ptr, ptr %3, align 8, !tbaa !75
  %16 = getelementptr inbounds nuw %struct.psa_mac_operation_s, ptr %15, i32 0, i32 2
  %17 = load i8, ptr %16, align 1
  %18 = and i8 %17, -2
  %19 = or i8 %18, 0
  store i8 %19, ptr %16, align 1
  %20 = load ptr, ptr %3, align 8, !tbaa !75
  %21 = getelementptr inbounds nuw %struct.psa_mac_operation_s, ptr %20, i32 0, i32 0
  store i32 0, ptr %21, align 8, !tbaa !77
  %22 = load i32, ptr %4, align 4, !tbaa !3
  store i32 %22, ptr %2, align 4
  call void @llvm.lifetime.end.p0(i64 4, ptr %4) #8
  br label %23

23:                                               ; preds = %10, %9
  %24 = load i32, ptr %2, align 4
  ret i32 %24
}

; Function Attrs: nounwind uwtable
define internal i32 @psa_key_derivation_get_kdf_alg(ptr noundef %0) #0 {
  %2 = alloca i32, align 4
  %3 = alloca ptr, align 8
  store ptr %0, ptr %3, align 8, !tbaa !105
  %4 = load ptr, ptr %3, align 8, !tbaa !105
  %5 = getelementptr inbounds nuw %struct.psa_key_derivation_s, ptr %4, i32 0, i32 0
  %6 = load i32, ptr %5, align 8, !tbaa !107
  %7 = and i32 %6, 2130706432
  %8 = icmp eq i32 %7, 150994944
  br i1 %8, label %9, label %15

9:                                                ; preds = %1
  %10 = load ptr, ptr %3, align 8, !tbaa !105
  %11 = getelementptr inbounds nuw %struct.psa_key_derivation_s, ptr %10, i32 0, i32 0
  %12 = load i32, ptr %11, align 8, !tbaa !107
  %13 = and i32 %12, -33488897
  %14 = or i32 %13, 134217728
  store i32 %14, ptr %2, align 4
  br label %19

15:                                               ; preds = %1
  %16 = load ptr, ptr %3, align 8, !tbaa !105
  %17 = getelementptr inbounds nuw %struct.psa_key_derivation_s, ptr %16, i32 0, i32 0
  %18 = load i32, ptr %17, align 8, !tbaa !107
  store i32 %18, ptr %2, align 4
  br label %19

19:                                               ; preds = %15, %9
  %20 = load i32, ptr %2, align 4
  ret i32 %20
}

; Function Attrs: nounwind uwtable
define hidden i32 @psa_key_derivation_abort(ptr noundef %0) #0 {
  %2 = alloca ptr, align 8
  %3 = alloca i32, align 4
  %4 = alloca i32, align 4
  store ptr %0, ptr %2, align 8, !tbaa !105
  call void @llvm.lifetime.start.p0(i64 4, ptr %3) #8
  store i32 0, ptr %3, align 4, !tbaa !3
  call void @llvm.lifetime.start.p0(i64 4, ptr %4) #8
  %5 = load ptr, ptr %2, align 8, !tbaa !105
  %6 = call i32 @psa_key_derivation_get_kdf_alg(ptr noundef %5)
  store i32 %6, ptr %4, align 4, !tbaa !3
  %7 = load i32, ptr %4, align 4, !tbaa !3
  %8 = icmp eq i32 %7, 0
  br i1 %8, label %9, label %10

9:                                                ; preds = %1
  br label %112

10:                                               ; preds = %1
  %11 = load i32, ptr %4, align 4, !tbaa !3
  %12 = and i32 %11, -256
  %13 = icmp eq i32 %12, 134217984
  br i1 %13, label %22, label %14

14:                                               ; preds = %10
  %15 = load i32, ptr %4, align 4, !tbaa !3
  %16 = and i32 %15, -256
  %17 = icmp eq i32 %16, 134218752
  br i1 %17, label %22, label %18

18:                                               ; preds = %14
  %19 = load i32, ptr %4, align 4, !tbaa !3
  %20 = and i32 %19, -256
  %21 = icmp eq i32 %20, 134219008
  br i1 %21, label %22, label %31

22:                                               ; preds = %18, %14, %10
  %23 = load ptr, ptr %2, align 8, !tbaa !105
  %24 = getelementptr inbounds nuw %struct.psa_key_derivation_s, ptr %23, i32 0, i32 3
  %25 = getelementptr inbounds nuw %struct.psa_hkdf_key_derivation_t, ptr %24, i32 0, i32 0
  %26 = load ptr, ptr %25, align 8, !tbaa !17
  call void @free(ptr noundef %26) #8
  %27 = load ptr, ptr %2, align 8, !tbaa !105
  %28 = getelementptr inbounds nuw %struct.psa_key_derivation_s, ptr %27, i32 0, i32 3
  %29 = getelementptr inbounds nuw %struct.psa_hkdf_key_derivation_t, ptr %28, i32 0, i32 7
  %30 = call i32 @psa_mac_abort(ptr noundef %29)
  store i32 %30, ptr %3, align 4, !tbaa !3
  br label %111

31:                                               ; preds = %18
  %32 = load i32, ptr %4, align 4, !tbaa !3
  %33 = and i32 %32, -256
  %34 = icmp eq i32 %33, 134218240
  br i1 %34, label %39, label %35

35:                                               ; preds = %31
  %36 = load i32, ptr %4, align 4, !tbaa !3
  %37 = and i32 %36, -256
  %38 = icmp eq i32 %37, 134218496
  br i1 %38, label %39, label %100

39:                                               ; preds = %35, %31
  %40 = load ptr, ptr %2, align 8, !tbaa !105
  %41 = getelementptr inbounds nuw %struct.psa_key_derivation_s, ptr %40, i32 0, i32 3
  %42 = getelementptr inbounds nuw %struct.psa_tls12_prf_key_derivation_s, ptr %41, i32 0, i32 3
  %43 = load ptr, ptr %42, align 8, !tbaa !17
  %44 = icmp ne ptr %43, null
  br i1 %44, label %45, label %54

45:                                               ; preds = %39
  %46 = load ptr, ptr %2, align 8, !tbaa !105
  %47 = getelementptr inbounds nuw %struct.psa_key_derivation_s, ptr %46, i32 0, i32 3
  %48 = getelementptr inbounds nuw %struct.psa_tls12_prf_key_derivation_s, ptr %47, i32 0, i32 3
  %49 = load ptr, ptr %48, align 8, !tbaa !17
  %50 = load ptr, ptr %2, align 8, !tbaa !105
  %51 = getelementptr inbounds nuw %struct.psa_key_derivation_s, ptr %50, i32 0, i32 3
  %52 = getelementptr inbounds nuw %struct.psa_tls12_prf_key_derivation_s, ptr %51, i32 0, i32 4
  %53 = load i64, ptr %52, align 8, !tbaa !17
  call void @mbedtls_zeroize_and_free(ptr noundef %49, i64 noundef %53)
  br label %54

54:                                               ; preds = %45, %39
  %55 = load ptr, ptr %2, align 8, !tbaa !105
  %56 = getelementptr inbounds nuw %struct.psa_key_derivation_s, ptr %55, i32 0, i32 3
  %57 = getelementptr inbounds nuw %struct.psa_tls12_prf_key_derivation_s, ptr %56, i32 0, i32 5
  %58 = load ptr, ptr %57, align 8, !tbaa !17
  %59 = icmp ne ptr %58, null
  br i1 %59, label %60, label %69

60:                                               ; preds = %54
  %61 = load ptr, ptr %2, align 8, !tbaa !105
  %62 = getelementptr inbounds nuw %struct.psa_key_derivation_s, ptr %61, i32 0, i32 3
  %63 = getelementptr inbounds nuw %struct.psa_tls12_prf_key_derivation_s, ptr %62, i32 0, i32 5
  %64 = load ptr, ptr %63, align 8, !tbaa !17
  %65 = load ptr, ptr %2, align 8, !tbaa !105
  %66 = getelementptr inbounds nuw %struct.psa_key_derivation_s, ptr %65, i32 0, i32 3
  %67 = getelementptr inbounds nuw %struct.psa_tls12_prf_key_derivation_s, ptr %66, i32 0, i32 6
  %68 = load i64, ptr %67, align 8, !tbaa !17
  call void @mbedtls_zeroize_and_free(ptr noundef %64, i64 noundef %68)
  br label %69

69:                                               ; preds = %60, %54
  %70 = load ptr, ptr %2, align 8, !tbaa !105
  %71 = getelementptr inbounds nuw %struct.psa_key_derivation_s, ptr %70, i32 0, i32 3
  %72 = getelementptr inbounds nuw %struct.psa_tls12_prf_key_derivation_s, ptr %71, i32 0, i32 7
  %73 = load ptr, ptr %72, align 8, !tbaa !17
  %74 = icmp ne ptr %73, null
  br i1 %74, label %75, label %84

75:                                               ; preds = %69
  %76 = load ptr, ptr %2, align 8, !tbaa !105
  %77 = getelementptr inbounds nuw %struct.psa_key_derivation_s, ptr %76, i32 0, i32 3
  %78 = getelementptr inbounds nuw %struct.psa_tls12_prf_key_derivation_s, ptr %77, i32 0, i32 7
  %79 = load ptr, ptr %78, align 8, !tbaa !17
  %80 = load ptr, ptr %2, align 8, !tbaa !105
  %81 = getelementptr inbounds nuw %struct.psa_key_derivation_s, ptr %80, i32 0, i32 3
  %82 = getelementptr inbounds nuw %struct.psa_tls12_prf_key_derivation_s, ptr %81, i32 0, i32 8
  %83 = load i64, ptr %82, align 8, !tbaa !17
  call void @mbedtls_zeroize_and_free(ptr noundef %79, i64 noundef %83)
  br label %84

84:                                               ; preds = %75, %69
  %85 = load ptr, ptr %2, align 8, !tbaa !105
  %86 = getelementptr inbounds nuw %struct.psa_key_derivation_s, ptr %85, i32 0, i32 3
  %87 = getelementptr inbounds nuw %struct.psa_tls12_prf_key_derivation_s, ptr %86, i32 0, i32 9
  %88 = load ptr, ptr %87, align 8, !tbaa !17
  %89 = icmp ne ptr %88, null
  br i1 %89, label %90, label %99

90:                                               ; preds = %84
  %91 = load ptr, ptr %2, align 8, !tbaa !105
  %92 = getelementptr inbounds nuw %struct.psa_key_derivation_s, ptr %91, i32 0, i32 3
  %93 = getelementptr inbounds nuw %struct.psa_tls12_prf_key_derivation_s, ptr %92, i32 0, i32 9
  %94 = load ptr, ptr %93, align 8, !tbaa !17
  %95 = load ptr, ptr %2, align 8, !tbaa !105
  %96 = getelementptr inbounds nuw %struct.psa_key_derivation_s, ptr %95, i32 0, i32 3
  %97 = getelementptr inbounds nuw %struct.psa_tls12_prf_key_derivation_s, ptr %96, i32 0, i32 10
  %98 = load i64, ptr %97, align 8, !tbaa !17
  call void @mbedtls_zeroize_and_free(ptr noundef %94, i64 noundef %98)
  br label %99

99:                                               ; preds = %90, %84
  store i32 0, ptr %3, align 4, !tbaa !3
  br label %110

100:                                              ; preds = %35
  %101 = load i32, ptr %4, align 4, !tbaa !3
  %102 = icmp eq i32 %101, 134219273
  br i1 %102, label %103, label %108

103:                                              ; preds = %100
  %104 = load ptr, ptr %2, align 8, !tbaa !105
  %105 = getelementptr inbounds nuw %struct.psa_key_derivation_s, ptr %104, i32 0, i32 3
  %106 = getelementptr inbounds nuw %struct.psa_tls12_ecjpake_to_pms_t, ptr %105, i32 0, i32 0
  %107 = getelementptr inbounds [32 x i8], ptr %106, i64 0, i64 0
  call void @mbedtls_platform_zeroize(ptr noundef %107, i64 noundef 32)
  br label %109

108:                                              ; preds = %100
  store i32 -137, ptr %3, align 4, !tbaa !3
  br label %109

109:                                              ; preds = %108, %103
  br label %110

110:                                              ; preds = %109, %99
  br label %111

111:                                              ; preds = %110, %22
  br label %112

112:                                              ; preds = %111, %9
  %113 = load ptr, ptr %2, align 8, !tbaa !105
  call void @mbedtls_platform_zeroize(ptr noundef %113, i64 noundef 568)
  %114 = load i32, ptr %3, align 4, !tbaa !3
  call void @llvm.lifetime.end.p0(i64 4, ptr %4) #8
  call void @llvm.lifetime.end.p0(i64 4, ptr %3) #8
  ret i32 %114
}