; Function Attrs: nounwind uwtable
define hidden i32 @psa_key_derivation_abort(ptr noundef %0) local_unnamed_addr #7 {
  %.val = load i32, ptr %0, align 8, !tbaa !74
  %2 = and i32 %.val, 2130706432
  %3 = icmp eq i32 %2, 150994944
  %4 = and i32 %.val, -2013200385
  %.0.i = select i1 %3, i32 %4, i32 %.val
  %5 = icmp eq i32 %.0.i, 0
  br i1 %5, label %psa_mac_abort.exit, label %6

6:                                                ; preds = %1
  %7 = add i32 %.0.i, -134217984
  %8 = lshr i32 %7, 8
  switch i32 %8, label %45 [
    i32 0, label %9
    i32 3, label %9
    i32 4, label %9
    i32 1, label %21
    i32 2, label %21
  ]

9:                                                ; preds = %6, %6, %6
  %10 = getelementptr inbounds nuw i8, ptr %0, i64 16
  %11 = load ptr, ptr %10, align 8, !tbaa !27
  tail call void @free(ptr noundef %11) #22
  %12 = getelementptr inbounds nuw i8, ptr %0, i64 168
  %13 = load i32, ptr %12, align 8, !tbaa !55
  switch i32 %13, label %psa_driver_wrapper_mac_abort.exit.i [
    i32 0, label %psa_mac_abort.exit
    i32 1, label %14
  ]

14:                                               ; preds = %9
  %15 = getelementptr inbounds nuw i8, ptr %0, i64 176
  %16 = tail call i32 @mbedtls_psa_mac_abort(ptr noundef nonnull %15) #22
  br label %psa_driver_wrapper_mac_abort.exit.i

psa_driver_wrapper_mac_abort.exit.i:              ; preds = %14, %9
  %.0.i.i = phi i32 [ %16, %14 ], [ -135, %9 ]
  %17 = getelementptr inbounds nuw i8, ptr %0, i64 172
  store i8 0, ptr %17, align 4, !tbaa !57
  %18 = getelementptr inbounds nuw i8, ptr %0, i64 173
  %19 = load i8, ptr %18, align 1
  %20 = and i8 %19, -2
  store i8 %20, ptr %18, align 1
  store i32 0, ptr %12, align 8, !tbaa !55
  br label %psa_mac_abort.exit

21:                                               ; preds = %6, %6
  %22 = getelementptr inbounds nuw i8, ptr %0, i64 24
  %23 = load ptr, ptr %22, align 8, !tbaa !27
  %.not = icmp eq ptr %23, null
  br i1 %.not, label %27, label %24

24:                                               ; preds = %21
  %25 = getelementptr inbounds nuw i8, ptr %0, i64 32
  %26 = load i64, ptr %25, align 8, !tbaa !27
  tail call void @mbedtls_zeroize_and_free(ptr noundef nonnull %23, i64 noundef %26) #22
  br label %27

27:                                               ; preds = %24, %21
  %28 = getelementptr inbounds nuw i8, ptr %0, i64 40
  %29 = load ptr, ptr %28, align 8, !tbaa !27
  %.not30 = icmp eq ptr %29, null
  br i1 %.not30, label %33, label %30

30:                                               ; preds = %27
  %31 = getelementptr inbounds nuw i8, ptr %0, i64 48
  %32 = load i64, ptr %31, align 8, !tbaa !27
  tail call void @mbedtls_zeroize_and_free(ptr noundef nonnull %29, i64 noundef %32) #22
  br label %33

33:                                               ; preds = %30, %27
  %34 = getelementptr inbounds nuw i8, ptr %0, i64 56
  %35 = load ptr, ptr %34, align 8, !tbaa !27
  %.not31 = icmp eq ptr %35, null
  br i1 %.not31, label %39, label %36

36:                                               ; preds = %33
  %37 = getelementptr inbounds nuw i8, ptr %0, i64 64
  %38 = load i64, ptr %37, align 8, !tbaa !27
  tail call void @mbedtls_zeroize_and_free(ptr noundef nonnull %35, i64 noundef %38) #22
  br label %39

39:                                               ; preds = %36, %33
  %40 = getelementptr inbounds nuw i8, ptr %0, i64 72
  %41 = load ptr, ptr %40, align 8, !tbaa !27
  %.not32 = icmp eq ptr %41, null
  br i1 %.not32, label %psa_mac_abort.exit, label %42

42:                                               ; preds = %39
  %43 = getelementptr inbounds nuw i8, ptr %0, i64 80
  %44 = load i64, ptr %43, align 8, !tbaa !27
  tail call void @mbedtls_zeroize_and_free(ptr noundef nonnull %41, i64 noundef %44) #22
  br label %psa_mac_abort.exit

45:                                               ; preds = %6
  %46 = icmp eq i32 %.0.i, 134219273
  br i1 %46, label %47, label %psa_mac_abort.exit

47:                                               ; preds = %45
  %48 = getelementptr inbounds nuw i8, ptr %0, i64 16
  tail call void @mbedtls_platform_zeroize(ptr noundef nonnull %48, i64 noundef 32) #22
  br label %psa_mac_abort.exit

psa_mac_abort.exit:                               ; preds = %psa_driver_wrapper_mac_abort.exit.i, %9, %45, %39, %42, %47, %1
  %.0 = phi i32 [ 0, %1 ], [ 0, %47 ], [ 0, %42 ], [ 0, %39 ], [ -137, %45 ], [ %.0.i.i, %psa_driver_wrapper_mac_abort.exit.i ], [ %13, %9 ]
  tail call void @mbedtls_platform_zeroize(ptr noundef nonnull %0, i64 noundef 568) #22
  ret i32 %.0
}